	.file	"delete.c"
	.intel_syntax noprefix
	.text
	.globl	__merger_cond_true_117873421
	.data
	.align 4
	.type	__merger_cond_true_117873421, @object
	.size	__merger_cond_true_117873421, 4
__merger_cond_true_117873421:
	.long	1
	.text
	.globl	sqlite3SrcListLookup
	.type	sqlite3SrcListLookup, @function
sqlite3SrcListLookup:
.LFB6:
	.cfi_startproc
	push	rbp
	.cfi_def_cfa_offset 16
	.cfi_offset 6, -16
	mov	rbp, rsp
	.cfi_def_cfa_register 6
	sub	rsp, 32
	mov	QWORD PTR -24[rbp], rdi
	mov	QWORD PTR -32[rbp], rsi
	mov	rax, QWORD PTR -32[rbp]
	add	rax, 8
	mov	QWORD PTR -16[rbp], rax
	mov	rdx, QWORD PTR -16[rbp]
	mov	rax, QWORD PTR -24[rbp]
	mov	esi, 0
	mov	rdi, rax
	call	sqlite3LocateTableItem@PLT
	mov	QWORD PTR -8[rbp], rax
	mov	rax, QWORD PTR -16[rbp]
	mov	rax, QWORD PTR 32[rax]
	test	rax, rax
	je	.L2
	mov	rax, QWORD PTR -16[rbp]
	mov	rdx, QWORD PTR 32[rax]
	mov	rax, QWORD PTR -24[rbp]
	mov	rax, QWORD PTR [rax]
	mov	rsi, rdx
	mov	rdi, rax
	call	sqlite3DeleteTable@PLT
.L2:
	mov	rax, QWORD PTR -16[rbp]
	mov	rdx, QWORD PTR -8[rbp]
	mov	QWORD PTR 32[rax], rdx
	mov	rax, QWORD PTR -16[rbp]
	movzx	edx, BYTE PTR 62[rax]
	or	edx, 2
	mov	BYTE PTR 62[rax], dl
	cmp	QWORD PTR -8[rbp], 0
	je	.L3
	mov	rax, QWORD PTR -8[rbp]
	mov	eax, DWORD PTR 44[rax]
	lea	edx, 1[rax]
	mov	rax, QWORD PTR -8[rbp]
	mov	DWORD PTR 44[rax], edx
	mov	rax, QWORD PTR -16[rbp]
	movzx	eax, BYTE PTR 61[rax]
	and	eax, 2
	test	al, al
	je	.L3
	mov	rdx, QWORD PTR -16[rbp]
	mov	rax, QWORD PTR -24[rbp]
	mov	rsi, rdx
	mov	rdi, rax
	call	sqlite3IndexedByLookup@PLT
	test	eax, eax
	je	.L3
	mov	QWORD PTR -8[rbp], 0
.L3:
	mov	rax, QWORD PTR -8[rbp]
	leave
	.cfi_def_cfa 7, 8
	ret
	.cfi_endproc
.LFE6:
	.size	sqlite3SrcListLookup, .-sqlite3SrcListLookup
	.globl	sqlite3CodeChangeCount
	.type	sqlite3CodeChangeCount, @function
sqlite3CodeChangeCount:
.LFB7:
	.cfi_startproc
	push	rbp
	.cfi_def_cfa_offset 16
	.cfi_offset 6, -16
	mov	rbp, rsp
	.cfi_def_cfa_register 6
	sub	rsp, 32
	mov	QWORD PTR -8[rbp], rdi
	mov	DWORD PTR -12[rbp], esi
	mov	QWORD PTR -24[rbp], rdx
	mov	rax, QWORD PTR -8[rbp]
	mov	esi, 83
	mov	rdi, rax
	call	sqlite3VdbeAddOp0@PLT
	mov	edx, DWORD PTR -12[rbp]
	mov	rax, QWORD PTR -8[rbp]
	mov	ecx, 1
	mov	esi, 84
	mov	rdi, rax
	call	sqlite3VdbeAddOp2@PLT
	mov	rax, QWORD PTR -8[rbp]
	mov	esi, 1
	mov	rdi, rax
	call	sqlite3VdbeSetNumCols@PLT
	mov	rdx, QWORD PTR -24[rbp]
	mov	rax, QWORD PTR -8[rbp]
	mov	r8d, 0
	mov	rcx, rdx
	mov	edx, 0
	mov	esi, 0
	mov	rdi, rax
	call	sqlite3VdbeSetColName@PLT
	nop
	leave
	.cfi_def_cfa 7, 8
	ret
	.cfi_endproc
.LFE7:
	.size	sqlite3CodeChangeCount, .-sqlite3CodeChangeCount
	.section	.rodata
	.align 8
.LC0:
	.string	"unsafe use of virtual table \"%s\""
	.text
	.type	vtabIsReadOnly, @function
vtabIsReadOnly:
.LFB8:
	.cfi_startproc
	push	rbp
	.cfi_def_cfa_offset 16
	.cfi_offset 6, -16
	mov	rbp, rsp
	.cfi_def_cfa_register 6
	sub	rsp, 256
	mov	QWORD PTR -248[rbp], rdi
call 0x100
	mov	QWORD PTR -256[rbp], rsi
	mov	DWORD PTR -12[rbp], -2
mov rax, qword ptr [rbp - 0x18]
	mov	eax, DWORD PTR __merger_cond_true_117873421[rip]
	test	eax, eax
	jne	.L7
mov eax, dword ptr [rax]
	mov	DWORD PTR -16[rbp], 3
.L7:
	mov	rax, QWORD PTR -248[rbp]
call 0x100
add rax, rax
	mov	rax, QWORD PTR [rax]
	mov	rdx, QWORD PTR -256[rbp]
	mov	rsi, rdx
	mov	rdi, rax
	call	sqlite3GetVTable@PLT
mov rax, qword ptr [rbp - 0x40]
mov rax, qword ptr [rbp - 0x28]
mov rax, rdx
	mov	rax, QWORD PTR 8[rax]
	mov	rax, QWORD PTR [rax]
	mov	rax, QWORD PTR 104[rax]
mov qword ptr [rbp - 8], 0
	test	rax, rax
	sete	al
mov rax, qword ptr [rax + 0x12c0]
	movzx	eax, al
	mov	QWORD PTR -24[rbp], rax
	cmp	QWORD PTR -24[rbp], 0
	je	.L8
add rax, rdx
	mov	DWORD PTR -4[rbp], 0
	jmp	.L9
.L20:
	mov	DWORD PTR -44[rbp], -2
	mov	eax, DWORD PTR __merger_cond_true_117873421[rip]
	test	eax, eax
	jne	.L10
mov rax, qword ptr [rbp - 0x28]
mov eax, dword ptr [rax]
mov rdx, qword ptr [rbp - 0x40]
	mov	DWORD PTR -48[rbp], 3
sub qword ptr [rbp - 0x10], rax
	mov	DWORD PTR -52[rbp], -2
mov qword ptr [rbp - 0x28], rax
	mov	eax, DWORD PTR __merger_cond_true_117873421[rip]
	test	eax, eax
	jne	.L11
	mov	DWORD PTR -56[rbp], 3
mov rax, qword ptr [rbp - 0x28]
.L11:
	mov	DWORD PTR -60[rbp], 3
.L10:
mov qword ptr [rax + 0x20], rdx
	mov	DWORD PTR -64[rbp], -2
mov rdx, qword ptr [rax + 8]
	mov	eax, DWORD PTR __merger_cond_true_117873421[rip]
mov eax, dword ptr [rax + 0x18]
	test	eax, eax
mov rax, qword ptr [rbp - 0x28]
	je	.L12
	mov	DWORD PTR -68[rbp], -2
mov rdi, rax
	mov	eax, DWORD PTR __merger_cond_true_117873421[rip]
mov rax, qword ptr [rbp - 0x28]
	test	eax, eax
	jne	.L13
	mov	DWORD PTR -72[rbp], 3
	mov	DWORD PTR -76[rbp], -2
call 0x100
add rax, rdx
	mov	eax, DWORD PTR __merger_cond_true_117873421[rip]
mov rax, qword ptr [rbp - 0x18]
mov byte ptr [rbp - 0x19], 1
mov rax, qword ptr [rbp - 0x38]
	test	eax, eax
mov rsi, qword ptr [rbp - 0x10]
	jne	.L14
mov rdi, rax
	mov	DWORD PTR -80[rbp], 3
.L14:
mov rax, qword ptr [rbp - 0x28]
	mov	DWORD PTR -84[rbp], 3
mov rdx, qword ptr [rax + 0x20]
cmp eax, 3
shl rax, 4
.L13:
mov byte ptr [rbp - 0x19], 1
cmp eax, 1
	mov	DWORD PTR -88[rbp], -2
	mov	eax, DWORD PTR __merger_cond_true_117873421[rip]
	test	eax, eax
	je	.L15
mov rax, qword ptr [rbp - 0x30]
mov rax, qword ptr [rax + 0x10]
	mov	DWORD PTR -92[rbp], -2
mov rax, qword ptr [rbp - 0x40]
	mov	eax, DWORD PTR __merger_cond_true_117873421[rip]
	test	eax, eax
mov rax, qword ptr [rbp - 0x30]
mov rax, qword ptr [rbp - 0x28]
mov rax, qword ptr [rbp - 0x28]
	jne	.L16
mov rax, qword ptr [rbp - 0x40]
	mov	DWORD PTR -96[rbp], 3
	mov	DWORD PTR -100[rbp], -2
mov rax, qword ptr [rax + 8]
	mov	eax, DWORD PTR __merger_cond_true_117873421[rip]
mov rax, qword ptr [rbp - 0x28]
	test	eax, eax
	jne	.L17
	mov	DWORD PTR -104[rbp], 3
.L17:
	mov	DWORD PTR -108[rbp], 3
.L16:
mov rax, qword ptr [rbp - 0x28]
	mov	DWORD PTR -112[rbp], -2
	mov	eax, DWORD PTR __merger_cond_true_117873421[rip]
	test	eax, eax
mov rax, qword ptr [rbp - 0x28]
	je	.L18
	mov	eax, 1
	jmp	.L19
mov rax, qword ptr [rbp - 0x40]
.L18:
	mov	DWORD PTR -116[rbp], 3
.L15:
	mov	DWORD PTR -120[rbp], 3
mov rax, qword ptr [rbp - 0x28]
mov rax, qword ptr [rbp - 0x28]
.L12:
mov rax, qword ptr [rbp - 0x28]
mov rax, qword ptr [rbp - 0x38]
	mov	DWORD PTR -124[rbp], 3
.L9:
	mov	eax, DWORD PTR -4[rbp]
	lea	edx, 1[rax]
mov rdi, rax
	mov	DWORD PTR -4[rbp], edx
add rax, rdx
	test	eax, eax
add rax, rdx
	je	.L20
mov eax, 0
	mov	DWORD PTR -28[rbp], 3
mov rax, qword ptr [rbp - 0x30]
	mov	DWORD PTR -32[rbp], -2
	mov	eax, DWORD PTR __merger_cond_true_117873421[rip]
	test	eax, eax
	jne	.L21
	mov	DWORD PTR -40[rbp], 3
	mov	eax, 12
	jmp	.L19
.L21:
	mov	DWORD PTR -36[rbp], 3
.L8:
	mov	rax, QWORD PTR -248[rbp]
	mov	rax, QWORD PTR 176[rax]
	test	rax, rax
mov rax, qword ptr [rbp - 0x28]
mov rax, qword ptr [rbp - 0x28]
mov rax, qword ptr [rbp - 0x18]
mov eax, 2
	je	.L22
	mov	rax, QWORD PTR -256[rbp]
	mov	rax, QWORD PTR 80[rax]
	movzx	eax, BYTE PTR 30[rax]
nop
mov eax, dword ptr [rax]
	movzx	edx, al
	mov	rax, QWORD PTR -248[rbp]
nop
	mov	rax, QWORD PTR [rax]
mov rax, qword ptr [rbp - 0x28]
	mov	rax, QWORD PTR 48[rax]
mov eax, dword ptr [rax + 0x18]
	and	eax, 128
	test	rax, rax
	setne	al
	movzx	eax, al
mov rax, qword ptr [rax + 0x12d0]
	cmp	edx, eax
mov rax, qword ptr [rbp - 0x28]
	jle	.L22
add qword ptr [rbp - 8], 1
	mov	eax, 1
	jmp	.L23
.L22:
	mov	eax, 0
mov rax, qword ptr [rbp - 0x40]
mov rax, qword ptr [rbp - 0x40]
.L23:
	cdqe
	mov	QWORD PTR -136[rbp], rax
	mov	DWORD PTR -8[rbp], 1
	jmp	.L24
.L34:
mov rax, qword ptr [rbp - 0x28]
	mov	DWORD PTR -140[rbp], -2
mov rdi, rax
	mov	eax, DWORD PTR __merger_cond_true_117873421[rip]
mov rax, qword ptr [rbp - 0x40]
	test	eax, eax
	je	.L25
	mov	DWORD PTR -144[rbp], -2
	mov	eax, DWORD PTR __merger_cond_true_117873421[rip]
call 0x100
mov rax, qword ptr [rbp - 0x28]
	test	eax, eax
mov rdi, rax
	je	.L26
	mov	DWORD PTR -8[rbp], 0
	mov	rax, QWORD PTR -256[rbp]
	mov	rdx, QWORD PTR [rax]
nop
	mov	rax, QWORD PTR -248[rbp]
	lea	rcx, .LC0[rip]
	mov	rsi, rcx
	mov	rdi, rax
	mov	eax, 0
	call	sqlite3ErrorMsg@PLT
.L26:
	mov	DWORD PTR -148[rbp], 3
mov rax, qword ptr [rax + 0x12c0]
.L25:
	mov	DWORD PTR -152[rbp], 3
mov rax, qword ptr [rbp - 0x18]
	mov	DWORD PTR -156[rbp], -2
cmp byte ptr [rbp - 0x19], 0
call 0x100
	mov	eax, DWORD PTR __merger_cond_true_117873421[rip]
	test	eax, eax
	jne	.L27
cmp rdx, rax
mov esi, eax
	mov	DWORD PTR -160[rbp], 3
mov rax, qword ptr [rbp - 0x28]
cmp qword ptr [rbp - 8], rax
	mov	DWORD PTR -164[rbp], -2
	mov	eax, DWORD PTR __merger_cond_true_117873421[rip]
cmp eax, 3
	test	eax, eax
mov eax, 0
	jne	.L28
mov edx, eax
	mov	DWORD PTR -168[rbp], 3
	mov	DWORD PTR -172[rbp], -2
	mov	eax, DWORD PTR __merger_cond_true_117873421[rip]
	test	eax, eax
	jne	.L29
	mov	DWORD PTR -176[rbp], 3
mov rax, qword ptr [rbp - 0x28]
.L29:
	mov	DWORD PTR -180[rbp], 3
mov eax, 0
.L28:
	mov	DWORD PTR -184[rbp], 3
	mov	DWORD PTR -188[rbp], -2
add qword ptr [rbp - 0x18], rax
	mov	eax, DWORD PTR __merger_cond_true_117873421[rip]
	test	eax, eax
	jne	.L30
mov rax, qword ptr [rbp - 0x28]
	mov	DWORD PTR -192[rbp], 3
	mov	DWORD PTR -196[rbp], -2
	mov	eax, DWORD PTR __merger_cond_true_117873421[rip]
mov rax, qword ptr [rbp - 0x28]
cmp eax, 2
mov rax, qword ptr [rbp - 0x28]
	test	eax, eax
	jne	.L31
mov qword ptr [rbp - 0x30], rax
	mov	DWORD PTR -200[rbp], 3
.L31:
mov byte ptr [rbp - 0x19], 1
	mov	DWORD PTR -204[rbp], 3
mov rax, qword ptr [rbp - 0x18]
mov rax, qword ptr [rbp - 0x28]
	mov	DWORD PTR -208[rbp], -2
	mov	eax, DWORD PTR __merger_cond_true_117873421[rip]
nop
	test	eax, eax
	jne	.L32
	mov	DWORD PTR -216[rbp], 3
	mov	eax, 12
	jmp	.L19
.L32:
	mov	DWORD PTR -212[rbp], 3
.L30:
	mov	DWORD PTR -220[rbp], 3
.L27:
	mov	DWORD PTR -224[rbp], 3
.L24:
	cmp	QWORD PTR -136[rbp], 0
mov rax, qword ptr [rbp - 0x28]
	je	.L33
	cmp	DWORD PTR -8[rbp], 0
	jne	.L34
.L33:
mov byte ptr [rax + 0xa], dl
cmp eax, 3
mov rax, qword ptr [rbp - 0x28]
	mov	DWORD PTR -228[rbp], -2
	mov	eax, DWORD PTR __merger_cond_true_117873421[rip]
	test	eax, eax
	jne	.L35
	mov	DWORD PTR -232[rbp], 3
	mov	eax, 12
	jmp	.L19
.L35:
	mov	eax, 0
.L19:
	leave
	.cfi_def_cfa 7, 8
	ret
	.cfi_endproc
.LFE8:
	.size	vtabIsReadOnly, .-vtabIsReadOnly
	.type	tabIsReadOnly, @function
tabIsReadOnly:
.LFB9:
	.cfi_startproc
	push	rbp
	.cfi_def_cfa_offset 16
	.cfi_offset 6, -16
	mov	rbp, rsp
	.cfi_def_cfa_register 6
	sub	rsp, 32
	mov	QWORD PTR -24[rbp], rdi
	mov	QWORD PTR -32[rbp], rsi
	mov	rax, QWORD PTR -32[rbp]
	movzx	eax, BYTE PTR 63[rax]
	cmp	al, 1
	jne	.L37
	mov	rdx, QWORD PTR -32[rbp]
	mov	rax, QWORD PTR -24[rbp]
	mov	rsi, rdx
	mov	rdi, rax
	call	vtabIsReadOnly
	jmp	.L38
.L37:
	mov	rax, QWORD PTR -32[rbp]
	mov	eax, DWORD PTR 48[rax]
	and	eax, 4097
	test	eax, eax
	jne	.L39
	mov	eax, 0
	jmp	.L38
.L39:
	mov	rax, QWORD PTR -24[rbp]
	mov	rax, QWORD PTR [rax]
	mov	QWORD PTR -8[rbp], rax
	mov	rax, QWORD PTR -32[rbp]
	mov	eax, DWORD PTR 48[rax]
	and	eax, 1
	test	eax, eax
	je	.L40
	mov	rax, QWORD PTR -8[rbp]
	mov	rdi, rax
	call	sqlite3WritableSchema@PLT
	test	eax, eax
	jne	.L41
	mov	rax, QWORD PTR -24[rbp]
	movzx	eax, BYTE PTR 30[rax]
	test	al, al
	jne	.L41
	mov	eax, 1
	jmp	.L38
.L41:
	mov	eax, 0
	jmp	.L38
.L40:
	mov	rax, QWORD PTR -8[rbp]
	mov	rdi, rax
	call	sqlite3ReadOnlyShadowTables@PLT
.L38:
	leave
	.cfi_def_cfa 7, 8
	ret
	.cfi_endproc
.LFE9:
	.size	tabIsReadOnly, .-tabIsReadOnly
	.section	.rodata
.LC1:
	.string	"table %s may not be modified"
	.align 8
.LC2:
	.string	"cannot modify %s because it is a view"
	.text
	.globl	sqlite3IsReadOnly
	.type	sqlite3IsReadOnly, @function
sqlite3IsReadOnly:
.LFB10:
	.cfi_startproc
	push	rbp
	.cfi_def_cfa_offset 16
	.cfi_offset 6, -16
	mov	rbp, rsp
	.cfi_def_cfa_register 6
	sub	rsp, 32
	mov	QWORD PTR -8[rbp], rdi
	mov	QWORD PTR -16[rbp], rsi
	mov	QWORD PTR -24[rbp], rdx
	mov	rdx, QWORD PTR -16[rbp]
	mov	rax, QWORD PTR -8[rbp]
	mov	rsi, rdx
	mov	rdi, rax
	call	tabIsReadOnly
	test	eax, eax
	je	.L44
	mov	rax, QWORD PTR -16[rbp]
	mov	rdx, QWORD PTR [rax]
	mov	rax, QWORD PTR -8[rbp]
	lea	rcx, .LC1[rip]
	mov	rsi, rcx
	mov	rdi, rax
	mov	eax, 0
	call	sqlite3ErrorMsg@PLT
	mov	eax, 1
	jmp	.L45
.L44:
	mov	rax, QWORD PTR -16[rbp]
	movzx	eax, BYTE PTR 63[rax]
	cmp	al, 2
	jne	.L46
	cmp	QWORD PTR -24[rbp], 0
	je	.L47
	mov	rax, QWORD PTR -24[rbp]
	movzx	eax, BYTE PTR 18[rax]
	test	al, al
	je	.L46
	mov	rax, QWORD PTR -24[rbp]
	mov	rax, QWORD PTR 64[rax]
	test	rax, rax
	jne	.L46
.L47:
	mov	rax, QWORD PTR -16[rbp]
	mov	rdx, QWORD PTR [rax]
	mov	rax, QWORD PTR -8[rbp]
	lea	rcx, .LC2[rip]
	mov	rsi, rcx
	mov	rdi, rax
	mov	eax, 0
	call	sqlite3ErrorMsg@PLT
	mov	eax, 1
	jmp	.L45
.L46:
	mov	eax, 0
.L45:
	leave
	.cfi_def_cfa 7, 8
	ret
	.cfi_endproc
.LFE10:
	.size	sqlite3IsReadOnly, .-sqlite3IsReadOnly
	.globl	sqlite3MaterializeView
	.type	sqlite3MaterializeView, @function
sqlite3MaterializeView:
.LFB11:
	.cfi_startproc
	push	rbp
	.cfi_def_cfa_offset 16
	.cfi_offset 6, -16
	mov	rbp, rsp
	.cfi_def_cfa_register 6
	add	rsp, -128
	mov	QWORD PTR -88[rbp], rdi
	mov	QWORD PTR -96[rbp], rsi
	mov	QWORD PTR -104[rbp], rdx
	mov	QWORD PTR -112[rbp], rcx
	mov	QWORD PTR -120[rbp], r8
	mov	DWORD PTR -124[rbp], r9d
	mov	rax, QWORD PTR -88[rbp]
	mov	rax, QWORD PTR [rax]
	mov	QWORD PTR -8[rbp], rax
	mov	rax, QWORD PTR -96[rbp]
	mov	rdx, QWORD PTR 96[rax]
	mov	rax, QWORD PTR -8[rbp]
	mov	rsi, rdx
	mov	rdi, rax
	call	sqlite3SchemaToIndex@PLT
	mov	DWORD PTR -12[rbp], eax
	mov	rcx, QWORD PTR -104[rbp]
	mov	rax, QWORD PTR -8[rbp]
	mov	edx, 0
	mov	rsi, rcx
	mov	rdi, rax
	call	sqlite3ExprDup@PLT
	mov	QWORD PTR -104[rbp], rax
	mov	rax, QWORD PTR -88[rbp]
	mov	ecx, 0
	mov	edx, 0
	mov	esi, 0
	mov	rdi, rax
	call	sqlite3SrcListAppend@PLT
	mov	QWORD PTR -24[rbp], rax
	cmp	QWORD PTR -24[rbp], 0
	je	.L49
	mov	rax, QWORD PTR -96[rbp]
	mov	rdx, QWORD PTR [rax]
	mov	rax, QWORD PTR -8[rbp]
	mov	rsi, rdx
	mov	rdi, rax
	call	sqlite3DbStrDup@PLT
	mov	rdx, QWORD PTR -24[rbp]
	mov	QWORD PTR 24[rdx], rax
	mov	rax, QWORD PTR -8[rbp]
	mov	rax, QWORD PTR 32[rax]
	mov	edx, DWORD PTR -12[rbp]
	movsx	rdx, edx
	sal	rdx, 5
	add	rax, rdx
	mov	rdx, QWORD PTR [rax]
	mov	rax, QWORD PTR -8[rbp]
	mov	rsi, rdx
	mov	rdi, rax
	call	sqlite3DbStrDup@PLT
	mov	rdx, QWORD PTR -24[rbp]
	mov	QWORD PTR 16[rdx], rax
.L49:
	mov	rcx, QWORD PTR -104[rbp]
	mov	rdx, QWORD PTR -24[rbp]
	mov	rax, QWORD PTR -88[rbp]
	sub	rsp, 8
	push	QWORD PTR -120[rbp]
	push	131072
	push	QWORD PTR -112[rbp]
	mov	r9d, 0
	mov	r8d, 0
	mov	esi, 0
	mov	rdi, rax
	call	sqlite3SelectNew@PLT
	add	rsp, 32
	mov	QWORD PTR -32[rbp], rax
	mov	edx, DWORD PTR -124[rbp]
	lea	rax, -80[rbp]
	mov	esi, 12
	mov	rdi, rax
	call	sqlite3SelectDestInit@PLT
	lea	rdx, -80[rbp]
	mov	rcx, QWORD PTR -32[rbp]
	mov	rax, QWORD PTR -88[rbp]
	mov	rsi, rcx
	mov	rdi, rax
	call	sqlite3Select@PLT
	mov	rdx, QWORD PTR -32[rbp]
	mov	rax, QWORD PTR -8[rbp]
	mov	rsi, rdx
	mov	rdi, rax
	call	sqlite3SelectDelete@PLT
	nop
	leave
	.cfi_def_cfa 7, 8
	ret
	.cfi_endproc
.LFE11:
	.size	sqlite3MaterializeView, .-sqlite3MaterializeView
	.section	.rodata
.LC3:
	.string	"rows deleted"
	.text
	.globl	sqlite3DeleteFrom
	.type	sqlite3DeleteFrom, @function
sqlite3DeleteFrom:
.LFB12:
	.cfi_startproc
	push	rbp
	.cfi_def_cfa_offset 16
	.cfi_offset 6, -16
	mov	rbp, rsp
	.cfi_def_cfa_register 6
	push	rbx
	sub	rsp, 312
	.cfi_offset 3, -24
	mov	QWORD PTR -280[rbp], rdi
	mov	QWORD PTR -288[rbp], rsi
	mov	QWORD PTR -296[rbp], rdx
	mov	QWORD PTR -304[rbp], rcx
	mov	QWORD PTR -312[rbp], r8
	mov	DWORD PTR -188[rbp], 0
	mov	DWORD PTR -192[rbp], 0
	mov	DWORD PTR -40[rbp], 0
	mov	QWORD PTR -48[rbp], 0
	mov	DWORD PTR -60[rbp], 0
	mov	WORD PTR -62[rbp], 1
	mov	DWORD PTR -76[rbp], 0
	mov	DWORD PTR -80[rbp], 0
	mov	DWORD PTR -84[rbp], 0
	mov	DWORD PTR -88[rbp], 0
	mov	DWORD PTR -92[rbp], 0
	lea	rax, -208[rbp]
	mov	edx, 16
	mov	esi, 0
	mov	rdi, rax
	call	memset@PLT
	mov	rax, QWORD PTR -280[rbp]
	mov	rax, QWORD PTR [rax]
	mov	QWORD PTR -112[rbp], rax
	mov	rax, QWORD PTR -280[rbp]
	mov	eax, DWORD PTR 48[rax]
	test	eax, eax
	jne	.L114
	mov	rdx, QWORD PTR -288[rbp]
	mov	rax, QWORD PTR -280[rbp]
	mov	rsi, rdx
	mov	rdi, rax
	call	sqlite3SrcListLookup
	mov	QWORD PTR -120[rbp], rax
	cmp	QWORD PTR -120[rbp], 0
	je	.L115
	mov	rsi, QWORD PTR -120[rbp]
	mov	rax, QWORD PTR -280[rbp]
	mov	r8d, 0
	mov	ecx, 0
	mov	edx, 128
	mov	rdi, rax
	call	sqlite3TriggersExist@PLT
	mov	QWORD PTR -128[rbp], rax
	mov	rax, QWORD PTR -120[rbp]
	movzx	eax, BYTE PTR 63[rax]
	cmp	al, 2
	sete	al
	movzx	eax, al
	mov	DWORD PTR -132[rbp], eax
	cmp	QWORD PTR -128[rbp], 0
	jne	.L54
	mov	rsi, QWORD PTR -120[rbp]
	mov	rax, QWORD PTR -280[rbp]
	mov	ecx, 0
	mov	edx, 0
	mov	rdi, rax
	call	sqlite3FkRequired@PLT
	test	eax, eax
	je	.L55
.L54:
	mov	eax, 1
	jmp	.L56
.L55:
	mov	eax, 0
.L56:
	mov	DWORD PTR -96[rbp], eax
	mov	rdx, QWORD PTR -120[rbp]
	mov	rax, QWORD PTR -280[rbp]
	mov	rsi, rdx
	mov	rdi, rax
	call	sqlite3ViewGetColumnNames@PLT
	test	eax, eax
	jne	.L116
	mov	rdx, QWORD PTR -128[rbp]
	mov	rcx, QWORD PTR -120[rbp]
	mov	rax, QWORD PTR -280[rbp]
	mov	rsi, rcx
	mov	rdi, rax
	call	sqlite3IsReadOnly
	test	eax, eax
	jne	.L117
	mov	rax, QWORD PTR -120[rbp]
	mov	rdx, QWORD PTR 96[rax]
	mov	rax, QWORD PTR -112[rbp]
	mov	rsi, rdx
	mov	rdi, rax
	call	sqlite3SchemaToIndex@PLT
	mov	DWORD PTR -136[rbp], eax
	mov	rax, QWORD PTR -112[rbp]
	mov	rax, QWORD PTR 32[rax]
	mov	edx, DWORD PTR -136[rbp]
	movsx	rdx, edx
	sal	rdx, 5
	add	rax, rdx
	mov	rcx, QWORD PTR [rax]
	mov	rax, QWORD PTR -120[rbp]
	mov	rdx, QWORD PTR [rax]
	mov	rax, QWORD PTR -280[rbp]
	mov	r8, rcx
	mov	ecx, 0
	mov	esi, 9
	mov	rdi, rax
	call	sqlite3AuthCheck@PLT
	mov	DWORD PTR -140[rbp], eax
	cmp	DWORD PTR -140[rbp], 1
	je	.L118
	mov	rax, QWORD PTR -280[rbp]
	mov	eax, DWORD PTR 52[rax]
	lea	ecx, 1[rax]
	mov	rdx, QWORD PTR -280[rbp]
	mov	DWORD PTR 52[rdx], ecx
	mov	rdx, QWORD PTR -288[rbp]
	mov	DWORD PTR 72[rdx], eax
	mov	rax, QWORD PTR -288[rbp]
	mov	eax, DWORD PTR 72[rax]
	mov	DWORD PTR -144[rbp], eax
	mov	DWORD PTR -36[rbp], 0
	mov	rax, QWORD PTR -120[rbp]
	mov	rax, QWORD PTR 16[rax]
	mov	QWORD PTR -32[rbp], rax
	jmp	.L60
.L61:
	mov	rax, QWORD PTR -280[rbp]
	mov	eax, DWORD PTR 52[rax]
	lea	edx, 1[rax]
	mov	rax, QWORD PTR -280[rbp]
	mov	DWORD PTR 52[rax], edx
	mov	rax, QWORD PTR -32[rbp]
	mov	rax, QWORD PTR 40[rax]
	mov	QWORD PTR -32[rbp], rax
	add	DWORD PTR -36[rbp], 1
.L60:
	cmp	QWORD PTR -32[rbp], 0
	jne	.L61
	cmp	DWORD PTR -132[rbp], 0
	je	.L62
	mov	rax, QWORD PTR -120[rbp]
	mov	rdx, QWORD PTR [rax]
	lea	rcx, -208[rbp]
	mov	rax, QWORD PTR -280[rbp]
	mov	rsi, rcx
	mov	rdi, rax
	call	sqlite3AuthContextPush@PLT
.L62:
	mov	rax, QWORD PTR -280[rbp]
	mov	rdi, rax
	call	sqlite3GetVdbe@PLT
	mov	QWORD PTR -152[rbp], rax
	cmp	QWORD PTR -152[rbp], 0
	je	.L119
	mov	rax, QWORD PTR -280[rbp]
	movzx	eax, BYTE PTR 30[rax]
	test	al, al
	jne	.L64
	mov	rax, QWORD PTR -152[rbp]
	mov	rdi, rax
	call	sqlite3VdbeCountChanges@PLT
.L64:
	mov	edx, DWORD PTR -136[rbp]
	mov	ecx, DWORD PTR -96[rbp]
	mov	rax, QWORD PTR -280[rbp]
	mov	esi, ecx
	mov	rdi, rax
	call	sqlite3BeginWriteOperation@PLT
	cmp	DWORD PTR -132[rbp], 0
	je	.L65
	mov	r8d, DWORD PTR -144[rbp]
	mov	rdi, QWORD PTR -312[rbp]
	mov	rcx, QWORD PTR -304[rbp]
	mov	rdx, QWORD PTR -296[rbp]
	mov	rsi, QWORD PTR -120[rbp]
	mov	rax, QWORD PTR -280[rbp]
	mov	r9d, r8d
	mov	r8, rdi
	mov	rdi, rax
	call	sqlite3MaterializeView
	mov	eax, DWORD PTR -144[rbp]
	mov	DWORD PTR -192[rbp], eax
	mov	eax, DWORD PTR -192[rbp]
	mov	DWORD PTR -188[rbp], eax
	mov	QWORD PTR -304[rbp], 0
	mov	QWORD PTR -312[rbp], 0
.L65:
	lea	rax, -272[rbp]
	mov	edx, 56
	mov	esi, 0
	mov	rdi, rax
	call	memset@PLT
	mov	rax, QWORD PTR -280[rbp]
	mov	QWORD PTR -272[rbp], rax
	mov	rax, QWORD PTR -288[rbp]
	mov	QWORD PTR -264[rbp], rax
	mov	rdx, QWORD PTR -296[rbp]
	lea	rax, -272[rbp]
	mov	rsi, rdx
	mov	rdi, rax
	call	sqlite3ResolveExprNames@PLT
	test	eax, eax
	jne	.L120
	mov	rax, QWORD PTR -112[rbp]
	mov	rax, QWORD PTR 48[rax]
	movabs	rdx, 4294967296
	and	rax, rdx
	test	rax, rax
	je	.L67
	mov	rax, QWORD PTR -280[rbp]
	movzx	eax, BYTE PTR 30[rax]
	test	al, al
	jne	.L67
	mov	rax, QWORD PTR -280[rbp]
	mov	rax, QWORD PTR 184[rax]
	test	rax, rax
	jne	.L67
	mov	rax, QWORD PTR -280[rbp]
	movzx	eax, BYTE PTR 227[rax]
	test	al, al
	jne	.L67
	mov	rax, QWORD PTR -280[rbp]
	mov	eax, DWORD PTR 56[rax]
	lea	edx, 1[rax]
	mov	rax, QWORD PTR -280[rbp]
	mov	DWORD PTR 56[rax], edx
	mov	rax, QWORD PTR -280[rbp]
	mov	eax, DWORD PTR 56[rax]
	mov	DWORD PTR -40[rbp], eax
	mov	edx, DWORD PTR -40[rbp]
	mov	rax, QWORD PTR -152[rbp]
	mov	ecx, edx
	mov	edx, 0
	mov	esi, 71
	mov	rdi, rax
	call	sqlite3VdbeAddOp2@PLT
.L67:
	cmp	DWORD PTR -140[rbp], 0
	jne	.L68
	cmp	QWORD PTR -296[rbp], 0
	jne	.L68
	cmp	DWORD PTR -96[rbp], 0
	jne	.L68
	mov	rax, QWORD PTR -120[rbp]
	movzx	eax, BYTE PTR 63[rax]
	cmp	al, 1
	je	.L68
	mov	rax, QWORD PTR -120[rbp]
	mov	rcx, QWORD PTR [rax]
	mov	rax, QWORD PTR -120[rbp]
	mov	edx, DWORD PTR 40[rax]
	mov	esi, DWORD PTR -136[rbp]
	mov	rax, QWORD PTR -280[rbp]
	mov	r8, rcx
	mov	ecx, 1
	mov	rdi, rax
	call	sqlite3TableLock@PLT
	mov	rax, QWORD PTR -120[rbp]
	mov	eax, DWORD PTR 48[rax]
	and	eax, 128
	test	eax, eax
	jne	.L69
	mov	rax, QWORD PTR -120[rbp]
	mov	rsi, QWORD PTR [rax]
	cmp	DWORD PTR -40[rbp], 0
	je	.L70
	mov	ecx, DWORD PTR -40[rbp]
	jmp	.L71
.L70:
	mov	ecx, -1
.L71:
	mov	rax, QWORD PTR -120[rbp]
	mov	eax, DWORD PTR 40[rax]
	mov	edi, eax
	mov	edx, DWORD PTR -136[rbp]
	mov	rax, QWORD PTR -152[rbp]
	sub	rsp, 8
	push	-1
	mov	r9, rsi
	mov	r8d, ecx
	mov	ecx, edx
	mov	edx, edi
	mov	esi, 145
	mov	rdi, rax
	call	sqlite3VdbeAddOp4@PLT
	add	rsp, 16
.L69:
	mov	rax, QWORD PTR -120[rbp]
	mov	rax, QWORD PTR 16[rax]
	mov	QWORD PTR -32[rbp], rax
	jmp	.L72
.L77:
	mov	rax, QWORD PTR -32[rbp]
	movzx	eax, BYTE PTR 99[rax]
	and	eax, 3
	cmp	al, 2
	jne	.L73
	mov	rax, QWORD PTR -120[rbp]
	mov	eax, DWORD PTR 48[rax]
	and	eax, 128
	test	eax, eax
	je	.L73
	cmp	DWORD PTR -40[rbp], 0
	je	.L74
	mov	ecx, DWORD PTR -40[rbp]
	jmp	.L75
.L74:
	mov	ecx, -1
.L75:
	mov	rax, QWORD PTR -32[rbp]
	mov	eax, DWORD PTR 88[rax]
	mov	esi, eax
	mov	edx, DWORD PTR -136[rbp]
	mov	rax, QWORD PTR -152[rbp]
	mov	r8d, ecx
	mov	ecx, edx
	mov	edx, esi
	mov	esi, 145
	mov	rdi, rax
	call	sqlite3VdbeAddOp3@PLT
	jmp	.L76
.L73:
	mov	rax, QWORD PTR -32[rbp]
	mov	eax, DWORD PTR 88[rax]
	mov	esi, eax
	mov	edx, DWORD PTR -136[rbp]
	mov	rax, QWORD PTR -152[rbp]
	mov	ecx, edx
	mov	edx, esi
	mov	esi, 145
	mov	rdi, rax
	call	sqlite3VdbeAddOp2@PLT
.L76:
	mov	rax, QWORD PTR -32[rbp]
	mov	rax, QWORD PTR 40[rax]
	mov	QWORD PTR -32[rbp], rax
.L72:
	cmp	QWORD PTR -32[rbp], 0
	jne	.L77
	jmp	.L78
.L68:
	mov	WORD PTR -154[rbp], 20
	mov	eax, DWORD PTR -232[rbp]
	and	eax, 64
	test	eax, eax
	je	.L79
	mov	DWORD PTR -96[rbp], 1
.L79:
	cmp	DWORD PTR -96[rbp], 0
	je	.L80
	mov	edx, 0
	jmp	.L81
.L80:
	mov	edx, 8
.L81:
	movzx	eax, WORD PTR -154[rbp]
	or	eax, edx
	mov	WORD PTR -154[rbp], ax
	mov	rax, QWORD PTR -120[rbp]
	mov	eax, DWORD PTR 48[rax]
	and	eax, 128
	test	eax, eax
	jne	.L82
	mov	QWORD PTR -56[rbp], 0
	mov	rax, QWORD PTR -280[rbp]
	mov	eax, DWORD PTR 56[rax]
	lea	edx, 1[rax]
	mov	rax, QWORD PTR -280[rbp]
	mov	DWORD PTR 56[rax], edx
	mov	rax, QWORD PTR -280[rbp]
	mov	eax, DWORD PTR 56[rax]
	mov	DWORD PTR -80[rbp], eax
	mov	edx, DWORD PTR -80[rbp]
	mov	rax, QWORD PTR -152[rbp]
	mov	ecx, edx
	mov	edx, 0
	mov	esi, 75
	mov	rdi, rax
	call	sqlite3VdbeAddOp2@PLT
	jmp	.L83
.L82:
	mov	rax, QWORD PTR -120[rbp]
	mov	rdi, rax
	call	sqlite3PrimaryKeyIndex@PLT
	mov	QWORD PTR -56[rbp], rax
	mov	rax, QWORD PTR -56[rbp]
	movzx	eax, WORD PTR 94[rax]
	mov	WORD PTR -62[rbp], ax
	mov	rax, QWORD PTR -280[rbp]
	mov	eax, DWORD PTR 56[rax]
	add	eax, 1
	mov	DWORD PTR -60[rbp], eax
	mov	rax, QWORD PTR -280[rbp]
	mov	edx, DWORD PTR 56[rax]
	movsx	eax, WORD PTR -62[rbp]
	add	edx, eax
	mov	rax, QWORD PTR -280[rbp]
	mov	DWORD PTR 56[rax], edx
	mov	rax, QWORD PTR -280[rbp]
	mov	eax, DWORD PTR 52[rax]
	lea	ecx, 1[rax]
	mov	rdx, QWORD PTR -280[rbp]
	mov	DWORD PTR 52[rdx], ecx
	mov	DWORD PTR -76[rbp], eax
	movsx	ecx, WORD PTR -62[rbp]
	mov	edx, DWORD PTR -76[rbp]
	mov	rax, QWORD PTR -152[rbp]
	mov	esi, 118
	mov	rdi, rax
	call	sqlite3VdbeAddOp2@PLT
	mov	DWORD PTR -92[rbp], eax
	mov	rdx, QWORD PTR -56[rbp]
	mov	rax, QWORD PTR -280[rbp]
	mov	rsi, rdx
	mov	rdi, rax
	call	sqlite3VdbeSetP4KeyInfo@PLT
.L83:
	mov	eax, DWORD PTR -144[rbp]
	lea	edi, 1[rax]
	movzx	ecx, WORD PTR -154[rbp]
	mov	rdx, QWORD PTR -296[rbp]
	mov	rsi, QWORD PTR -288[rbp]
	mov	rax, QWORD PTR -280[rbp]
	push	rdi
	push	rcx
	mov	r9d, 0
	mov	r8d, 0
	mov	ecx, 0
	mov	rdi, rax
	call	sqlite3WhereBegin@PLT
	add	rsp, 16
	mov	QWORD PTR -168[rbp], rax
	cmp	QWORD PTR -168[rbp], 0
	je	.L121
	lea	rdx, -216[rbp]
	mov	rax, QWORD PTR -168[rbp]
	mov	rsi, rdx
	mov	rdi, rax
	call	sqlite3WhereOkOnePass@PLT
	mov	DWORD PTR -172[rbp], eax
	cmp	DWORD PTR -172[rbp], 1
	je	.L85
	mov	rax, QWORD PTR -280[rbp]
	mov	rdi, rax
	call	sqlite3MultiWrite@PLT
.L85:
	mov	rax, QWORD PTR -168[rbp]
	mov	rdi, rax
	call	sqlite3WhereUsesDeferredSeek@PLT
	test	eax, eax
	je	.L86
	mov	edx, DWORD PTR -144[rbp]
	mov	rax, QWORD PTR -152[rbp]
	mov	esi, 143
	mov	rdi, rax
	call	sqlite3VdbeAddOp1@PLT
.L86:
	cmp	DWORD PTR -40[rbp], 0
	je	.L87
	mov	edx, DWORD PTR -40[rbp]
	mov	rax, QWORD PTR -152[rbp]
	mov	ecx, 1
	mov	esi, 86
	mov	rdi, rax
	call	sqlite3VdbeAddOp2@PLT
.L87:
	cmp	QWORD PTR -56[rbp], 0
	je	.L88
	mov	DWORD PTR -20[rbp], 0
	jmp	.L89
.L90:
	mov	edx, DWORD PTR -60[rbp]
	mov	eax, DWORD PTR -20[rbp]
	lea	edi, [rdx+rax]
	mov	rax, QWORD PTR -56[rbp]
	mov	rax, QWORD PTR 8[rax]
	mov	edx, DWORD PTR -20[rbp]
	movsx	rdx, edx
	add	rdx, rdx
	add	rax, rdx
	movzx	eax, WORD PTR [rax]
	movsx	ecx, ax
	mov	edx, DWORD PTR -144[rbp]
	mov	rsi, QWORD PTR -120[rbp]
	mov	rax, QWORD PTR -152[rbp]
	mov	r8d, edi
	mov	rdi, rax
	call	sqlite3ExprCodeGetColumnOfTable@PLT
	add	DWORD PTR -20[rbp], 1
.L89:
	movsx	eax, WORD PTR -62[rbp]
	cmp	DWORD PTR -20[rbp], eax
	jl	.L90
	mov	eax, DWORD PTR -60[rbp]
	mov	DWORD PTR -68[rbp], eax
	jmp	.L91
.L88:
	mov	rax, QWORD PTR -280[rbp]
	mov	eax, DWORD PTR 56[rax]
	lea	edx, 1[rax]
	mov	rax, QWORD PTR -280[rbp]
	mov	DWORD PTR 56[rax], edx
	mov	rax, QWORD PTR -280[rbp]
	mov	eax, DWORD PTR 56[rax]
	mov	DWORD PTR -68[rbp], eax
	mov	ecx, DWORD PTR -68[rbp]
	mov	edx, DWORD PTR -144[rbp]
	mov	rsi, QWORD PTR -120[rbp]
	mov	rax, QWORD PTR -152[rbp]
	mov	r8d, ecx
	mov	ecx, -1
	mov	rdi, rax
	call	sqlite3ExprCodeGetColumnOfTable@PLT
.L91:
	cmp	DWORD PTR -172[rbp], 0
	je	.L92
	movzx	eax, WORD PTR -62[rbp]
	mov	WORD PTR -70[rbp], ax
	mov	eax, DWORD PTR -36[rbp]
	add	eax, 2
	movsx	rdx, eax
	mov	rax, QWORD PTR -112[rbp]
	mov	rsi, rdx
	mov	rdi, rax
	call	sqlite3DbMallocRawNN@PLT
	mov	QWORD PTR -48[rbp], rax
	cmp	QWORD PTR -48[rbp], 0
	jne	.L93
	mov	rax, QWORD PTR -168[rbp]
	mov	rdi, rax
	call	sqlite3WhereEnd@PLT
	jmp	.L52
.L93:
	mov	eax, DWORD PTR -36[rbp]
	add	eax, 1
	movsx	rdx, eax
	mov	rax, QWORD PTR -48[rbp]
	mov	esi, 1
	mov	rdi, rax
	call	memset@PLT
	mov	eax, DWORD PTR -36[rbp]
	cdqe
	lea	rdx, 1[rax]
	mov	rax, QWORD PTR -48[rbp]
	add	rax, rdx
	mov	BYTE PTR [rax], 0
	mov	eax, DWORD PTR -216[rbp]
	test	eax, eax
	js	.L94
	mov	eax, DWORD PTR -216[rbp]
	sub	eax, DWORD PTR -144[rbp]
	movsx	rdx, eax
	mov	rax, QWORD PTR -48[rbp]
	add	rax, rdx
	mov	BYTE PTR [rax], 0
.L94:
	mov	eax, DWORD PTR -212[rbp]
	test	eax, eax
	js	.L95
	mov	eax, DWORD PTR -212[rbp]
	sub	eax, DWORD PTR -144[rbp]
	movsx	rdx, eax
	mov	rax, QWORD PTR -48[rbp]
	add	rax, rdx
	mov	BYTE PTR [rax], 0
.L95:
	cmp	DWORD PTR -92[rbp], 0
	je	.L96
	mov	edx, DWORD PTR -92[rbp]
	mov	rax, QWORD PTR -152[rbp]
	mov	esi, edx
	mov	rdi, rax
	call	sqlite3VdbeChangeToNoop@PLT
.L96:
	mov	rax, QWORD PTR -280[rbp]
	mov	rdi, rax
	call	sqlite3VdbeMakeLabel@PLT
	mov	DWORD PTR -84[rbp], eax
	jmp	.L97
.L92:
	cmp	QWORD PTR -56[rbp], 0
	je	.L98
	mov	rax, QWORD PTR -280[rbp]
	mov	eax, DWORD PTR 56[rax]
	lea	edx, 1[rax]
	mov	rax, QWORD PTR -280[rbp]
	mov	DWORD PTR 56[rax], edx
	mov	rax, QWORD PTR -280[rbp]
	mov	eax, DWORD PTR 56[rax]
	mov	DWORD PTR -68[rbp], eax
	mov	WORD PTR -70[rbp], 0
	movsx	ebx, WORD PTR -62[rbp]
	mov	rax, QWORD PTR -280[rbp]
	mov	rax, QWORD PTR [rax]
	mov	rdx, QWORD PTR -56[rbp]
	mov	rsi, rdx
	mov	rdi, rax
	call	sqlite3IndexAffinityStr@PLT
	mov	rsi, rax
	movsx	ecx, WORD PTR -62[rbp]
	mov	edi, DWORD PTR -68[rbp]
	mov	edx, DWORD PTR -60[rbp]
	mov	rax, QWORD PTR -152[rbp]
	sub	rsp, 8
	push	rbx
	mov	r9, rsi
	mov	r8d, edi
	mov	esi, 97
	mov	rdi, rax
	call	sqlite3VdbeAddOp4@PLT
	add	rsp, 16
	movsx	edi, WORD PTR -62[rbp]
	mov	esi, DWORD PTR -60[rbp]
	mov	ecx, DWORD PTR -68[rbp]
	mov	edx, DWORD PTR -76[rbp]
	mov	rax, QWORD PTR -152[rbp]
	mov	r9d, edi
	mov	r8d, esi
	mov	esi, 138
	mov	rdi, rax
	call	sqlite3VdbeAddOp4Int@PLT
	jmp	.L99
.L98:
	mov	WORD PTR -70[rbp], 1
	mov	ecx, DWORD PTR -68[rbp]
	mov	edx, DWORD PTR -80[rbp]
	mov	rax, QWORD PTR -152[rbp]
	mov	esi, 156
	mov	rdi, rax
	call	sqlite3VdbeAddOp2@PLT
.L99:
	mov	rax, QWORD PTR -168[rbp]
	mov	rdi, rax
	call	sqlite3WhereEnd@PLT
.L97:
	cmp	DWORD PTR -132[rbp], 0
	jne	.L100
	mov	DWORD PTR -100[rbp], 0
	cmp	DWORD PTR -172[rbp], 2
	jne	.L101
	mov	rax, QWORD PTR -152[rbp]
	mov	esi, 15
	mov	rdi, rax
	call	sqlite3VdbeAddOp0@PLT
	mov	DWORD PTR -100[rbp], eax
.L101:
	mov	rdi, QWORD PTR -48[rbp]
	mov	ecx, DWORD PTR -144[rbp]
	mov	rsi, QWORD PTR -120[rbp]
	mov	rax, QWORD PTR -280[rbp]
	lea	rdx, -192[rbp]
	push	rdx
	lea	rdx, -188[rbp]
	push	rdx
	mov	r9, rdi
	mov	r8d, ecx
	mov	ecx, 8
	mov	edx, 113
	mov	rdi, rax
	call	sqlite3OpenTableAndIndices@PLT
	add	rsp, 16
	cmp	DWORD PTR -172[rbp], 2
	jne	.L100
	mov	edx, DWORD PTR -100[rbp]
	mov	rax, QWORD PTR -152[rbp]
	mov	esi, edx
	mov	rdi, rax
	call	sqlite3VdbeJumpHereOrPopInst@PLT
.L100:
	cmp	DWORD PTR -172[rbp], 0
	je	.L102
	mov	rax, QWORD PTR -120[rbp]
	movzx	eax, BYTE PTR 63[rax]
	cmp	al, 1
	je	.L103
	mov	eax, DWORD PTR -188[rbp]
	sub	eax, DWORD PTR -144[rbp]
	movsx	rdx, eax
	mov	rax, QWORD PTR -48[rbp]
	add	rax, rdx
	movzx	eax, BYTE PTR [rax]
	test	al, al
	je	.L103
	movsx	edi, WORD PTR -70[rbp]
	mov	edx, DWORD PTR -188[rbp]
	mov	esi, DWORD PTR -68[rbp]
	mov	ecx, DWORD PTR -84[rbp]
	mov	rax, QWORD PTR -152[rbp]
	mov	r9d, edi
	mov	r8d, esi
	mov	esi, 28
	mov	rdi, rax
	call	sqlite3VdbeAddOp4Int@PLT
	jmp	.L103
.L102:
	cmp	QWORD PTR -56[rbp], 0
	je	.L104
	mov	edx, DWORD PTR -76[rbp]
	mov	rax, QWORD PTR -152[rbp]
	mov	esi, 36
	mov	rdi, rax
	call	sqlite3VdbeAddOp1@PLT
	mov	DWORD PTR -88[rbp], eax
	mov	rax, QWORD PTR -120[rbp]
	movzx	eax, BYTE PTR 63[rax]
	cmp	al, 1
	jne	.L105
	mov	ecx, DWORD PTR -68[rbp]
	mov	edx, DWORD PTR -76[rbp]
	mov	rax, QWORD PTR -152[rbp]
	mov	r8d, ecx
	mov	ecx, 0
	mov	esi, 94
	mov	rdi, rax
	call	sqlite3VdbeAddOp3@PLT
	jmp	.L103
.L105:
	mov	ecx, DWORD PTR -68[rbp]
	mov	edx, DWORD PTR -76[rbp]
	mov	rax, QWORD PTR -152[rbp]
	mov	esi, 134
	mov	rdi, rax
	call	sqlite3VdbeAddOp2@PLT
	jmp	.L103
.L104:
	mov	ecx, DWORD PTR -68[rbp]
	mov	edx, DWORD PTR -80[rbp]
	mov	rax, QWORD PTR -152[rbp]
	mov	r8d, ecx
	mov	ecx, 0
	mov	esi, 46
	mov	rdi, rax
	call	sqlite3VdbeAddOp3@PLT
	mov	DWORD PTR -88[rbp], eax
.L103:
	mov	rax, QWORD PTR -120[rbp]
	movzx	eax, BYTE PTR 63[rax]
	cmp	al, 1
	jne	.L106
	mov	rdx, QWORD PTR -120[rbp]
	mov	rax, QWORD PTR -112[rbp]
	mov	rsi, rdx
	mov	rdi, rax
	call	sqlite3GetVTable@PLT
	mov	QWORD PTR -184[rbp], rax
	mov	rdx, QWORD PTR -120[rbp]
	mov	rax, QWORD PTR -280[rbp]
	mov	rsi, rdx
	mov	rdi, rax
	call	sqlite3VtabMakeWritable@PLT
	mov	rax, QWORD PTR -280[rbp]
	mov	rdi, rax
	call	sqlite3MayAbort@PLT
	cmp	DWORD PTR -172[rbp], 1
	jne	.L107
	mov	edx, DWORD PTR -144[rbp]
	mov	rax, QWORD PTR -152[rbp]
	mov	esi, 122
	mov	rdi, rax
	call	sqlite3VdbeAddOp1@PLT
	mov	rax, QWORD PTR -280[rbp]
	mov	rax, QWORD PTR 176[rax]
	test	rax, rax
	jne	.L107
	mov	rax, QWORD PTR -280[rbp]
	mov	BYTE PTR 32[rax], 0
.L107:
	mov	rcx, QWORD PTR -184[rbp]
	mov	edx, DWORD PTR -68[rbp]
	mov	rax, QWORD PTR -152[rbp]
	sub	rsp, 8
	push	-11
	mov	r9, rcx
	mov	r8d, edx
	mov	ecx, 1
	mov	edx, 0
	mov	esi, 7
	mov	rdi, rax
	call	sqlite3VdbeAddOp4@PLT
	add	rsp, 16
	mov	rax, QWORD PTR -152[rbp]
	mov	esi, 2
	mov	rdi, rax
	call	sqlite3VdbeChangeP5@PLT
	jmp	.L108
.L106:
	mov	rax, QWORD PTR -280[rbp]
	movzx	eax, BYTE PTR 30[rax]
	test	al, al
	sete	al
	movzx	eax, al
	mov	DWORD PTR -176[rbp], eax
	mov	r10d, DWORD PTR -212[rbp]
	mov	eax, DWORD PTR -172[rbp]
	movzx	r9d, al
	mov	eax, DWORD PTR -176[rbp]
	movzx	r8d, al
	movsx	edi, WORD PTR -70[rbp]
	mov	r11d, DWORD PTR -192[rbp]
	mov	ecx, DWORD PTR -188[rbp]
	mov	ebx, DWORD PTR -68[rbp]
	mov	rdx, QWORD PTR -128[rbp]
	mov	rsi, QWORD PTR -120[rbp]
	mov	rax, QWORD PTR -280[rbp]
	sub	rsp, 8
	push	r10
	push	r9
	push	11
	push	r8
	push	rdi
	mov	r9d, ebx
	mov	r8d, r11d
	mov	rdi, rax
	call	sqlite3GenerateRowDelete
	add	rsp, 48
.L108:
	cmp	DWORD PTR -172[rbp], 0
	je	.L109
	mov	edx, DWORD PTR -84[rbp]
	mov	rax, QWORD PTR -152[rbp]
	mov	esi, edx
	mov	rdi, rax
	call	sqlite3VdbeResolveLabel@PLT
	mov	rax, QWORD PTR -168[rbp]
	mov	rdi, rax
	call	sqlite3WhereEnd@PLT
	jmp	.L78
.L109:
	cmp	QWORD PTR -56[rbp], 0
	je	.L110
	mov	eax, DWORD PTR -88[rbp]
	lea	ecx, 1[rax]
	mov	edx, DWORD PTR -76[rbp]
	mov	rax, QWORD PTR -152[rbp]
	mov	esi, 39
	mov	rdi, rax
	call	sqlite3VdbeAddOp2@PLT
	mov	edx, DWORD PTR -88[rbp]
	mov	rax, QWORD PTR -152[rbp]
	mov	esi, edx
	mov	rdi, rax
	call	sqlite3VdbeJumpHere@PLT
	jmp	.L78
.L110:
	mov	edx, DWORD PTR -88[rbp]
	mov	rax, QWORD PTR -152[rbp]
	mov	esi, edx
	mov	rdi, rax
	call	sqlite3VdbeGoto@PLT
	mov	edx, DWORD PTR -88[rbp]
	mov	rax, QWORD PTR -152[rbp]
	mov	esi, edx
	mov	rdi, rax
	call	sqlite3VdbeJumpHere@PLT
.L78:
	mov	rax, QWORD PTR -280[rbp]
	movzx	eax, BYTE PTR 30[rax]
	test	al, al
	jne	.L111
	mov	rax, QWORD PTR -280[rbp]
	mov	rax, QWORD PTR 184[rax]
	test	rax, rax
	jne	.L111
	mov	rax, QWORD PTR -280[rbp]
	mov	rdi, rax
	call	sqlite3AutoincrementEnd@PLT
.L111:
	cmp	DWORD PTR -40[rbp], 0
	je	.L122
	mov	ecx, DWORD PTR -40[rbp]
	mov	rax, QWORD PTR -152[rbp]
	lea	rdx, .LC3[rip]
	mov	esi, ecx
	mov	rdi, rax
	call	sqlite3CodeChangeCount
	jmp	.L52
.L114:
	nop
	jmp	.L52
.L115:
	nop
	jmp	.L52
.L116:
	nop
	jmp	.L52
.L117:
	nop
	jmp	.L52
.L118:
	nop
	jmp	.L52
.L119:
	nop
	jmp	.L52
.L120:
	nop
	jmp	.L52
.L121:
	nop
	jmp	.L52
.L122:
	nop
.L52:
	lea	rax, -208[rbp]
	mov	rdi, rax
	call	sqlite3AuthContextPop@PLT
	mov	rdx, QWORD PTR -288[rbp]
	mov	rax, QWORD PTR -112[rbp]
	mov	rsi, rdx
	mov	rdi, rax
	call	sqlite3SrcListDelete@PLT
	mov	rdx, QWORD PTR -296[rbp]
	mov	rax, QWORD PTR -112[rbp]
	mov	rsi, rdx
	mov	rdi, rax
	call	sqlite3ExprDelete@PLT
	cmp	QWORD PTR -48[rbp], 0
	je	.L123
	mov	rdx, QWORD PTR -48[rbp]
	mov	rax, QWORD PTR -112[rbp]
	mov	rsi, rdx
	mov	rdi, rax
	call	sqlite3DbNNFreeNN@PLT
	nop
.L123:
	nop
	mov	rbx, QWORD PTR -8[rbp]
	leave
	.cfi_def_cfa 7, 8
	ret
	.cfi_endproc
.LFE12:
	.size	sqlite3DeleteFrom, .-sqlite3DeleteFrom
	.section	.rodata
.LC4:
	.string	"sqlite_stat1"
	.text
	.globl	sqlite3GenerateRowDelete
	.type	sqlite3GenerateRowDelete, @function
sqlite3GenerateRowDelete:
.LFB13:
	.cfi_startproc
	push	rbp
	.cfi_def_cfa_offset 16
	.cfi_offset 6, -16
	mov	rbp, rsp
	.cfi_def_cfa_register 6
	sub	rsp, 112
	mov	QWORD PTR -56[rbp], rdi
	mov	QWORD PTR -64[rbp], rsi
	mov	QWORD PTR -72[rbp], rdx
	mov	DWORD PTR -76[rbp], ecx
	mov	DWORD PTR -80[rbp], r8d
	mov	DWORD PTR -84[rbp], r9d
	mov	esi, DWORD PTR 16[rbp]
	mov	ecx, DWORD PTR 24[rbp]
	mov	edx, DWORD PTR 32[rbp]
	mov	eax, DWORD PTR 40[rbp]
	mov	WORD PTR -88[rbp], si
	mov	BYTE PTR -92[rbp], cl
	mov	BYTE PTR -96[rbp], dl
	mov	BYTE PTR -100[rbp], al
	mov	rax, QWORD PTR -56[rbp]
	mov	rax, QWORD PTR 16[rax]
	mov	QWORD PTR -24[rbp], rax
	mov	DWORD PTR -4[rbp], 0
	mov	rax, QWORD PTR -56[rbp]
	mov	rdi, rax
	call	sqlite3VdbeMakeLabel@PLT
	mov	DWORD PTR -28[rbp], eax
	mov	rax, QWORD PTR -64[rbp]
	mov	eax, DWORD PTR 48[rax]
	and	eax, 128
	test	eax, eax
	jne	.L125
	mov	eax, 31
	jmp	.L126
.L125:
	mov	eax, 28
.L126:
	mov	BYTE PTR -29[rbp], al
	cmp	BYTE PTR -100[rbp], 0
	jne	.L127
	movsx	r8d, WORD PTR -88[rbp]
	movzx	esi, BYTE PTR -29[rbp]
	mov	edi, DWORD PTR -84[rbp]
	mov	ecx, DWORD PTR -28[rbp]
	mov	edx, DWORD PTR -76[rbp]
	mov	rax, QWORD PTR -24[rbp]
	mov	r9d, r8d
	mov	r8d, edi
	mov	rdi, rax
	call	sqlite3VdbeAddOp4Int@PLT
.L127:
	mov	rsi, QWORD PTR -64[rbp]
	mov	rax, QWORD PTR -56[rbp]
	mov	ecx, 0
	mov	edx, 0
	mov	rdi, rax
	call	sqlite3FkRequired@PLT
	test	eax, eax
	jne	.L128
	cmp	QWORD PTR -72[rbp], 0
	je	.L129
.L128:
	movzx	edx, BYTE PTR -96[rbp]
	mov	rcx, QWORD PTR -64[rbp]
	mov	rsi, QWORD PTR -72[rbp]
	mov	rax, QWORD PTR -56[rbp]
	sub	rsp, 8
	push	rdx
	mov	r9, rcx
	mov	r8d, 3
	mov	ecx, 0
	mov	edx, 0
	mov	rdi, rax
	call	sqlite3TriggerColmask@PLT
	add	rsp, 16
	mov	DWORD PTR -36[rbp], eax
	mov	rdx, QWORD PTR -64[rbp]
	mov	rax, QWORD PTR -56[rbp]
	mov	rsi, rdx
	mov	rdi, rax
	call	sqlite3FkOldmask@PLT
	or	DWORD PTR -36[rbp], eax
	mov	rax, QWORD PTR -56[rbp]
	mov	eax, DWORD PTR 56[rax]
	add	eax, 1
	mov	DWORD PTR -4[rbp], eax
	mov	rax, QWORD PTR -56[rbp]
	mov	edx, DWORD PTR 56[rax]
	mov	rax, QWORD PTR -64[rbp]
	movzx	eax, WORD PTR 54[rax]
	cwde
	add	eax, 1
	add	edx, eax
	mov	rax, QWORD PTR -56[rbp]
	mov	DWORD PTR 56[rax], edx
	mov	ecx, DWORD PTR -4[rbp]
	mov	edx, DWORD PTR -84[rbp]
	mov	rax, QWORD PTR -24[rbp]
	mov	esi, 80
	mov	rdi, rax
	call	sqlite3VdbeAddOp2@PLT
	mov	DWORD PTR -8[rbp], 0
	jmp	.L130
.L133:
	cmp	DWORD PTR -36[rbp], -1
	je	.L131
	cmp	DWORD PTR -8[rbp], 31
	jg	.L132
	mov	eax, DWORD PTR -8[rbp]
	mov	edx, 1
	mov	ecx, eax
	sal	edx, cl
	mov	eax, edx
	and	eax, DWORD PTR -36[rbp]
	test	eax, eax
	je	.L132
.L131:
	mov	eax, DWORD PTR -8[rbp]
	movsx	edx, ax
	mov	rax, QWORD PTR -64[rbp]
	mov	esi, edx
	mov	rdi, rax
	call	sqlite3TableColumnToStorage@PLT
	cwde
	mov	DWORD PTR -44[rbp], eax
	mov	edx, DWORD PTR -4[rbp]
	mov	eax, DWORD PTR -44[rbp]
	add	eax, edx
	lea	edi, 1[rax]
	mov	ecx, DWORD PTR -8[rbp]
	mov	edx, DWORD PTR -76[rbp]
	mov	rsi, QWORD PTR -64[rbp]
	mov	rax, QWORD PTR -24[rbp]
	mov	r8d, edi
	mov	rdi, rax
	call	sqlite3ExprCodeGetColumnOfTable@PLT
.L132:
	add	DWORD PTR -8[rbp], 1
.L130:
	mov	rax, QWORD PTR -64[rbp]
	movzx	eax, WORD PTR 54[rax]
	cwde
	cmp	DWORD PTR -8[rbp], eax
	jl	.L133
	mov	rax, QWORD PTR -24[rbp]
	mov	rdi, rax
	call	sqlite3VdbeCurrentAddr@PLT
	mov	DWORD PTR -40[rbp], eax
	movzx	edx, BYTE PTR -96[rbp]
	mov	rdi, QWORD PTR -64[rbp]
	mov	rsi, QWORD PTR -72[rbp]
	mov	rax, QWORD PTR -56[rbp]
	sub	rsp, 8
	mov	ecx, DWORD PTR -28[rbp]
	push	rcx
	push	rdx
	mov	edx, DWORD PTR -4[rbp]
	push	rdx
	mov	r9, rdi
	mov	r8d, 1
	mov	ecx, 0
	mov	edx, 128
	mov	rdi, rax
	call	sqlite3CodeRowTrigger@PLT
	add	rsp, 32
	mov	rax, QWORD PTR -24[rbp]
	mov	rdi, rax
	call	sqlite3VdbeCurrentAddr@PLT
	cmp	DWORD PTR -40[rbp], eax
	jge	.L134
	movsx	r8d, WORD PTR -88[rbp]
	movzx	esi, BYTE PTR -29[rbp]
	mov	edi, DWORD PTR -84[rbp]
	mov	ecx, DWORD PTR -28[rbp]
	mov	edx, DWORD PTR -76[rbp]
	mov	rax, QWORD PTR -24[rbp]
	mov	r9d, r8d
	mov	r8d, edi
	mov	rdi, rax
	call	sqlite3VdbeAddOp4Int@PLT
	mov	DWORD PTR 48[rbp], -1
.L134:
	mov	edx, DWORD PTR -4[rbp]
	mov	rsi, QWORD PTR -64[rbp]
	mov	rax, QWORD PTR -56[rbp]
	mov	r9d, 0
	mov	r8d, 0
	mov	ecx, 0
	mov	rdi, rax
	call	sqlite3FkCheck@PLT
.L129:
	mov	rax, QWORD PTR -64[rbp]
	movzx	eax, BYTE PTR 63[rax]
	cmp	al, 2
	je	.L135
	mov	BYTE PTR -9[rbp], 0
	mov	edi, DWORD PTR 48[rbp]
	mov	ecx, DWORD PTR -80[rbp]
	mov	edx, DWORD PTR -76[rbp]
	mov	rsi, QWORD PTR -64[rbp]
	mov	rax, QWORD PTR -56[rbp]
	mov	r9d, edi
	mov	r8d, 0
	mov	rdi, rax
	call	sqlite3GenerateRowIndexDelete
	cmp	BYTE PTR -92[rbp], 0
	setne	al
	movzx	ecx, al
	mov	edx, DWORD PTR -76[rbp]
	mov	rax, QWORD PTR -24[rbp]
	mov	esi, 130
	mov	rdi, rax
	call	sqlite3VdbeAddOp2@PLT
	mov	rax, QWORD PTR -56[rbp]
	movzx	eax, BYTE PTR 30[rax]
	test	al, al
	je	.L136
	mov	rax, QWORD PTR -64[rbp]
	mov	rax, QWORD PTR [rax]
	lea	rdx, .LC4[rip]
	mov	rsi, rdx
	mov	rdi, rax
	call	sqlite3_stricmp@PLT
	test	eax, eax
	jne	.L137
.L136:
	mov	rcx, QWORD PTR -64[rbp]
	mov	rax, QWORD PTR -24[rbp]
	mov	edx, -5
	mov	rsi, rcx
	mov	rdi, rax
	call	sqlite3VdbeAppendP4@PLT
.L137:
	cmp	BYTE PTR -100[rbp], 0
	je	.L138
	mov	rax, QWORD PTR -24[rbp]
	mov	esi, 4
	mov	rdi, rax
	call	sqlite3VdbeChangeP5@PLT
.L138:
	cmp	DWORD PTR 48[rbp], 0
	js	.L139
	mov	eax, DWORD PTR 48[rbp]
	cmp	eax, DWORD PTR -76[rbp]
	je	.L139
	mov	edx, DWORD PTR 48[rbp]
	mov	rax, QWORD PTR -24[rbp]
	mov	esi, 130
	mov	rdi, rax
	call	sqlite3VdbeAddOp1@PLT
.L139:
	cmp	BYTE PTR -100[rbp], 2
	jne	.L140
	or	BYTE PTR -9[rbp], 2
.L140:
	movzx	edx, BYTE PTR -9[rbp]
	mov	rax, QWORD PTR -24[rbp]
	mov	esi, edx
	mov	rdi, rax
	call	sqlite3VdbeChangeP5@PLT
.L135:
	mov	edx, DWORD PTR -4[rbp]
	mov	rsi, QWORD PTR -64[rbp]
	mov	rax, QWORD PTR -56[rbp]
	mov	r9d, 0
	mov	r8d, 0
	mov	ecx, edx
	mov	edx, 0
	mov	rdi, rax
	call	sqlite3FkActions@PLT
	cmp	QWORD PTR -72[rbp], 0
	je	.L141
	movzx	edx, BYTE PTR -96[rbp]
	mov	rdi, QWORD PTR -64[rbp]
	mov	rsi, QWORD PTR -72[rbp]
	mov	rax, QWORD PTR -56[rbp]
	sub	rsp, 8
	mov	ecx, DWORD PTR -28[rbp]
	push	rcx
	push	rdx
	mov	edx, DWORD PTR -4[rbp]
	push	rdx
	mov	r9, rdi
	mov	r8d, 2
	mov	ecx, 0
	mov	edx, 128
	mov	rdi, rax
	call	sqlite3CodeRowTrigger@PLT
	add	rsp, 32
.L141:
	mov	edx, DWORD PTR -28[rbp]
	mov	rax, QWORD PTR -24[rbp]
	mov	esi, edx
	mov	rdi, rax
	call	sqlite3VdbeResolveLabel@PLT
	nop
	leave
	.cfi_def_cfa 7, 8
	ret
	.cfi_endproc
.LFE13:
	.size	sqlite3GenerateRowDelete, .-sqlite3GenerateRowDelete
	.globl	sqlite3GenerateRowIndexDelete
	.type	sqlite3GenerateRowIndexDelete, @function
sqlite3GenerateRowIndexDelete:
.LFB14:
	.cfi_startproc
	push	rbp
	.cfi_def_cfa_offset 16
	.cfi_offset 6, -16
	mov	rbp, rsp
	.cfi_def_cfa_register 6
	sub	rsp, 96
	mov	QWORD PTR -56[rbp], rdi
	mov	QWORD PTR -64[rbp], rsi
	mov	DWORD PTR -68[rbp], edx
	mov	DWORD PTR -72[rbp], ecx
	mov	QWORD PTR -80[rbp], r8
	mov	DWORD PTR -84[rbp], r9d
	mov	DWORD PTR -8[rbp], -1
	mov	QWORD PTR -24[rbp], 0
	mov	rax, QWORD PTR -56[rbp]
	mov	rax, QWORD PTR 16[rax]
	mov	QWORD PTR -32[rbp], rax
	mov	rax, QWORD PTR -64[rbp]
	mov	eax, DWORD PTR 48[rax]
	and	eax, 128
	test	eax, eax
	je	.L143
	mov	rax, QWORD PTR -64[rbp]
	mov	rdi, rax
	call	sqlite3PrimaryKeyIndex@PLT
	jmp	.L144
.L143:
	mov	eax, 0
.L144:
	mov	QWORD PTR -40[rbp], rax
	mov	DWORD PTR -4[rbp], 0
	mov	rax, QWORD PTR -64[rbp]
	mov	rax, QWORD PTR 16[rax]
	mov	QWORD PTR -16[rbp], rax
	jmp	.L145
.L152:
	cmp	QWORD PTR -80[rbp], 0
	je	.L146
	mov	eax, DWORD PTR -4[rbp]
	cdqe
	lea	rdx, 0[0+rax*4]
	mov	rax, QWORD PTR -80[rbp]
	add	rax, rdx
	mov	eax, DWORD PTR [rax]
	test	eax, eax
	je	.L153
.L146:
	mov	rax, QWORD PTR -16[rbp]
	cmp	rax, QWORD PTR -40[rbp]
	je	.L154
	mov	edx, DWORD PTR -72[rbp]
	mov	eax, DWORD PTR -4[rbp]
	add	eax, edx
	cmp	DWORD PTR -84[rbp], eax
	je	.L155
	lea	rdi, -44[rbp]
	mov	edx, DWORD PTR -68[rbp]
	mov	rsi, QWORD PTR -16[rbp]
	mov	rax, QWORD PTR -56[rbp]
	mov	ecx, DWORD PTR -8[rbp]
	push	rcx
	push	QWORD PTR -24[rbp]
	mov	r9, rdi
	mov	r8d, 1
	mov	ecx, 0
	mov	rdi, rax
	call	sqlite3GenerateIndexKey
	add	rsp, 16
	mov	DWORD PTR -8[rbp], eax
	mov	rax, QWORD PTR -16[rbp]
	movzx	eax, BYTE PTR 99[rax]
	and	eax, 8
	test	al, al
	je	.L150
	mov	rax, QWORD PTR -16[rbp]
	movzx	eax, WORD PTR 94[rax]
	movzx	eax, ax
	jmp	.L151
.L150:
	mov	rax, QWORD PTR -16[rbp]
	movzx	eax, WORD PTR 96[rax]
	movzx	eax, ax
.L151:
	mov	ecx, DWORD PTR -72[rbp]
	mov	edx, DWORD PTR -4[rbp]
	lea	esi, [rcx+rdx]
	mov	edx, DWORD PTR -8[rbp]
	mov	rdi, QWORD PTR -32[rbp]
	mov	r8d, eax
	mov	ecx, edx
	mov	edx, esi
	mov	esi, 140
	call	sqlite3VdbeAddOp3@PLT
	mov	rax, QWORD PTR -32[rbp]
	mov	esi, 1
	mov	rdi, rax
	call	sqlite3VdbeChangeP5@PLT
	mov	edx, DWORD PTR -44[rbp]
	mov	rax, QWORD PTR -56[rbp]
	mov	esi, edx
	mov	rdi, rax
	call	sqlite3ResolvePartIdxLabel
	mov	rax, QWORD PTR -16[rbp]
	mov	QWORD PTR -24[rbp], rax
	jmp	.L147
.L153:
	nop
	jmp	.L147
.L154:
	nop
	jmp	.L147
.L155:
	nop
.L147:
	add	DWORD PTR -4[rbp], 1
	mov	rax, QWORD PTR -16[rbp]
	mov	rax, QWORD PTR 40[rax]
	mov	QWORD PTR -16[rbp], rax
.L145:
	cmp	QWORD PTR -16[rbp], 0
	jne	.L152
	nop
	nop
	leave
	.cfi_def_cfa 7, 8
	ret
	.cfi_endproc
.LFE14:
	.size	sqlite3GenerateRowIndexDelete, .-sqlite3GenerateRowIndexDelete
	.globl	sqlite3GenerateIndexKey
	.type	sqlite3GenerateIndexKey, @function
sqlite3GenerateIndexKey:
.LFB15:
	.cfi_startproc
	push	rbp
	.cfi_def_cfa_offset 16
	.cfi_offset 6, -16
	mov	rbp, rsp
	.cfi_def_cfa_register 6
	sub	rsp, 80
	mov	QWORD PTR -40[rbp], rdi
	mov	QWORD PTR -48[rbp], rsi
	mov	DWORD PTR -52[rbp], edx
	mov	DWORD PTR -56[rbp], ecx
	mov	DWORD PTR -60[rbp], r8d
	mov	QWORD PTR -72[rbp], r9
	mov	rax, QWORD PTR -40[rbp]
	mov	rax, QWORD PTR 16[rax]
	mov	QWORD PTR -16[rbp], rax
	cmp	QWORD PTR -72[rbp], 0
	je	.L157
	mov	rax, QWORD PTR -48[rbp]
	mov	rax, QWORD PTR 72[rax]
	test	rax, rax
	je	.L158
	mov	rax, QWORD PTR -40[rbp]
	mov	rdi, rax
	call	sqlite3VdbeMakeLabel@PLT
	mov	rdx, QWORD PTR -72[rbp]
	mov	DWORD PTR [rdx], eax
	mov	eax, DWORD PTR -52[rbp]
	lea	edx, 1[rax]
	mov	rax, QWORD PTR -40[rbp]
	mov	DWORD PTR 64[rax], edx
	mov	rax, QWORD PTR -72[rbp]
	mov	edx, DWORD PTR [rax]
	mov	rax, QWORD PTR -48[rbp]
	mov	rsi, QWORD PTR 72[rax]
	mov	rax, QWORD PTR -40[rbp]
	mov	ecx, 16
	mov	rdi, rax
	call	sqlite3ExprIfFalseDup@PLT
	mov	rax, QWORD PTR -40[rbp]
	mov	DWORD PTR 64[rax], 0
	mov	QWORD PTR 16[rbp], 0
	jmp	.L157
.L158:
	mov	rax, QWORD PTR -72[rbp]
	mov	DWORD PTR [rax], 0
.L157:
	cmp	DWORD PTR -60[rbp], 0
	je	.L159
	mov	rax, QWORD PTR -48[rbp]
	movzx	eax, BYTE PTR 99[rax]
	and	eax, 8
	test	al, al
	je	.L159
	mov	rax, QWORD PTR -48[rbp]
	movzx	eax, WORD PTR 94[rax]
	movzx	eax, ax
	jmp	.L160
.L159:
	mov	rax, QWORD PTR -48[rbp]
	movzx	eax, WORD PTR 96[rax]
	movzx	eax, ax
.L160:
	mov	DWORD PTR -20[rbp], eax
	mov	edx, DWORD PTR -20[rbp]
	mov	rax, QWORD PTR -40[rbp]
	mov	esi, edx
	mov	rdi, rax
	call	sqlite3GetTempRange@PLT
	mov	DWORD PTR -24[rbp], eax
	cmp	QWORD PTR 16[rbp], 0
	je	.L161
	mov	eax, DWORD PTR -24[rbp]
	cmp	eax, DWORD PTR 24[rbp]
	jne	.L162
	mov	rax, QWORD PTR 16[rbp]
	mov	rax, QWORD PTR 72[rax]
	test	rax, rax
	je	.L161
.L162:
	mov	QWORD PTR 16[rbp], 0
.L161:
	mov	DWORD PTR -4[rbp], 0
	jmp	.L163
.L166:
	cmp	QWORD PTR 16[rbp], 0
	je	.L164
	mov	rax, QWORD PTR 16[rbp]
	mov	rax, QWORD PTR 8[rax]
	mov	edx, DWORD PTR -4[rbp]
	movsx	rdx, edx
	add	rdx, rdx
	add	rax, rdx
	movzx	edx, WORD PTR [rax]
	mov	rax, QWORD PTR -48[rbp]
	mov	rax, QWORD PTR 8[rax]
	mov	ecx, DWORD PTR -4[rbp]
	movsx	rcx, ecx
	add	rcx, rcx
	add	rax, rcx
	movzx	eax, WORD PTR [rax]
	cmp	dx, ax
	jne	.L164
	mov	rax, QWORD PTR 16[rbp]
	mov	rax, QWORD PTR 8[rax]
	mov	edx, DWORD PTR -4[rbp]
	movsx	rdx, edx
	add	rdx, rdx
	add	rax, rdx
	movzx	eax, WORD PTR [rax]
	cmp	ax, -2
	jne	.L169
.L164:
	mov	edx, DWORD PTR -24[rbp]
	mov	eax, DWORD PTR -4[rbp]
	lea	edi, [rdx+rax]
	mov	ecx, DWORD PTR -4[rbp]
	mov	edx, DWORD PTR -52[rbp]
	mov	rsi, QWORD PTR -48[rbp]
	mov	rax, QWORD PTR -40[rbp]
	mov	r8d, edi
	mov	rdi, rax
	call	sqlite3ExprCodeLoadIndexColumn@PLT
	mov	rax, QWORD PTR -48[rbp]
	mov	rax, QWORD PTR 8[rax]
	mov	edx, DWORD PTR -4[rbp]
	movsx	rdx, edx
	add	rdx, rdx
	add	rax, rdx
	movzx	eax, WORD PTR [rax]
	test	ax, ax
	js	.L165
	mov	rax, QWORD PTR -16[rbp]
	mov	esi, 87
	mov	rdi, rax
	call	sqlite3VdbeDeletePriorOpcode@PLT
	jmp	.L165
.L169:
	nop
.L165:
	add	DWORD PTR -4[rbp], 1
.L163:
	mov	eax, DWORD PTR -4[rbp]
	cmp	eax, DWORD PTR -20[rbp]
	jl	.L166
	cmp	DWORD PTR -56[rbp], 0
	je	.L167
	mov	esi, DWORD PTR -56[rbp]
	mov	ecx, DWORD PTR -20[rbp]
	mov	edx, DWORD PTR -24[rbp]
	mov	rax, QWORD PTR -16[rbp]
	mov	r8d, esi
	mov	esi, 97
	mov	rdi, rax
	call	sqlite3VdbeAddOp3@PLT
.L167:
	mov	edx, DWORD PTR -20[rbp]
	mov	ecx, DWORD PTR -24[rbp]
	mov	rax, QWORD PTR -40[rbp]
	mov	esi, ecx
	mov	rdi, rax
	call	sqlite3ReleaseTempRange@PLT
	mov	eax, DWORD PTR -24[rbp]
	leave
	.cfi_def_cfa 7, 8
	ret
	.cfi_endproc
.LFE15:
	.size	sqlite3GenerateIndexKey, .-sqlite3GenerateIndexKey
	.globl	sqlite3ResolvePartIdxLabel
	.type	sqlite3ResolvePartIdxLabel, @function
sqlite3ResolvePartIdxLabel:
.LFB16:
	.cfi_startproc
	push	rbp
	.cfi_def_cfa_offset 16
	.cfi_offset 6, -16
	mov	rbp, rsp
	.cfi_def_cfa_register 6
	sub	rsp, 16
	mov	QWORD PTR -8[rbp], rdi
	mov	DWORD PTR -12[rbp], esi
	cmp	DWORD PTR -12[rbp], 0
	je	.L172
	mov	rax, QWORD PTR -8[rbp]
	mov	rax, QWORD PTR 16[rax]
	mov	edx, DWORD PTR -12[rbp]
	mov	esi, edx
	mov	rdi, rax
	call	sqlite3VdbeResolveLabel@PLT
.L172:
	nop
	leave
	.cfi_def_cfa 7, 8
	ret
	.cfi_endproc
.LFE16:
	.size	sqlite3ResolvePartIdxLabel, .-sqlite3ResolvePartIdxLabel
	.ident	"GCC: (Debian 13.2.0-6) 13.2.0"
	.section	.note.GNU-stack,"",@progbits
